target datalayout = "e-m:e-p270:32:32-p271:32:32-p272:64:64-i64:64-i128:128-f80:128-n8:16:32:64-S128"
target triple = "x86_64-pc-linux-gnu"

@hf_netb_xmit_corrl = internal global i32 0, align 4
@hf_netb_resp_corrl = internal global i32 0, align 4
@hf_netb_call_name_type = internal global i32 0, align 4
@hf_netb_local_session_no = internal global i32 0, align 4
@hf_netb_state_of_name = internal global i32 0, align 4
@.str.185 = private unnamed_addr constant [14 x i8] c"Sender's Name\00", align 1
@.str.189 = private unnamed_addr constant [16 x i8] c"Receiver's Name\00", align 1
@.str.193 = private unnamed_addr constant [41 x i8] c"No LISTEN pending, or FIND.NAME response\00", align 1
@.str.194 = private unnamed_addr constant [64 x i8] c"LISTEN pending, but insufficient resources to establish session\00", align 1

; Function Attrs: nounwind uwtable
define internal void @nb_resp_corrl(ptr noundef %0, i32 noundef %1, ptr noundef %2) #0 {
  %4 = alloca ptr, align 8
  %5 = alloca i32, align 4
  %6 = alloca ptr, align 8
  store ptr %0, ptr %4, align 8
  store i32 %1, ptr %5, align 4
  store ptr %2, ptr %6, align 8
  %7 = load ptr, ptr %6, align 8
  %8 = load i32, ptr @hf_netb_resp_corrl, align 4
  %9 = load ptr, ptr %4, align 8
  %10 = load i32, ptr %5, align 4
  %11 = add i32 %10, 10
  %12 = call ptr @proto_tree_add_item(ptr noundef %7, i32 noundef %8, ptr noundef %9, i32 noundef %11, i32 noundef 2, i32 noundef -2147483648)
  ret void
}

; Function Attrs: nounwind uwtable
define internal void @nb_xmit_corrl(ptr noundef %0, i32 noundef %1, ptr noundef %2) #0 {
  %4 = alloca ptr, align 8
  %5 = alloca i32, align 4
  %6 = alloca ptr, align 8
  store ptr %0, ptr %4, align 8
  store i32 %1, ptr %5, align 4
  store ptr %2, ptr %6, align 8
  %7 = load ptr, ptr %6, align 8
  %8 = load i32, ptr @hf_netb_xmit_corrl, align 4
  %9 = load ptr, ptr %4, align 8
  %10 = load i32, ptr %5, align 4
  %11 = add i32 %10, 8
  %12 = call ptr @proto_tree_add_item(ptr noundef %7, i32 noundef %8, ptr noundef %9, i32 noundef %11, i32 noundef 2, i32 noundef -2147483648)
  ret void
}

; Function Attrs: nounwind uwtable
define internal void @nb_call_name_type(ptr noundef %0, i32 noundef %1, ptr noundef %2) #0 {
  %4 = alloca ptr, align 8
  %5 = alloca i32, align 4
  %6 = alloca ptr, align 8
  store ptr %0, ptr %4, align 8
  store i32 %1, ptr %5, align 4
  store ptr %2, ptr %6, align 8
  %7 = load ptr, ptr %6, align 8
  %8 = load i32, ptr @hf_netb_call_name_type, align 4
  %9 = load ptr, ptr %4, align 8
  %10 = load i32, ptr %5, align 4
  %11 = add i32 %10, 7
  %12 = call ptr @proto_tree_add_item(ptr noundef %7, i32 noundef %8, ptr noundef %9, i32 noundef %11, i32 noundef 1, i32 noundef -2147483648)
  ret void
}

; Function Attrs: nounwind uwtable
define internal i32 @dissect_netb_name_resp(ptr noundef %0, ptr noundef %1, i32 noundef %2, ptr noundef %3) #0 {
  %5 = alloca ptr, align 8
  %6 = alloca ptr, align 8
  %7 = alloca i32, align 4
  %8 = alloca ptr, align 8
  %9 = alloca i8, align 1
  store ptr %0, ptr %5, align 8
  store ptr %1, ptr %6, align 8
  store i32 %2, ptr %7, align 4
  store ptr %3, ptr %8, align 8
  %10 = load ptr, ptr %5, align 8
  %11 = load i32, ptr %7, align 4
  %12 = add i32 %11, 6
  %13 = call zeroext i8 @tvb_get_guint8(ptr noundef %10, i32 noundef %12)
  store i8 %13, ptr %9, align 1
  %14 = load i8, ptr %9, align 1
  %15 = zext i8 %14 to i32
  switch i32 %15, label %34 [
    i32 0, label %16
    i32 255, label %25
  ]

16:                                               ; preds = %4
  %17 = load ptr, ptr %8, align 8
  %18 = load i32, ptr @hf_netb_state_of_name, align 4
  %19 = load ptr, ptr %5, align 8
  %20 = load i32, ptr %7, align 4
  %21 = add i32 %20, 6
  %22 = load i8, ptr %9, align 1
  %23 = zext i8 %22 to i32
  %24 = call ptr (ptr, i32, ptr, i32, i32, i32, ptr, ...) @proto_tree_add_uint_format_value(ptr noundef %17, i32 noundef %18, ptr noundef %19, i32 noundef %21, i32 noundef 1, i32 noundef %23, ptr noundef @.str.193)
  br label %41

25:                                               ; preds = %4
  %26 = load ptr, ptr %8, align 8
  %27 = load i32, ptr @hf_netb_state_of_name, align 4
  %28 = load ptr, ptr %5, align 8
  %29 = load i32, ptr %7, align 4
  %30 = add i32 %29, 6
  %31 = load i8, ptr %9, align 1
  %32 = zext i8 %31 to i32
  %33 = call ptr (ptr, i32, ptr, i32, i32, i32, ptr, ...) @proto_tree_add_uint_format_value(ptr noundef %26, i32 noundef %27, ptr noundef %28, i32 noundef %30, i32 noundef 1, i32 noundef %32, ptr noundef @.str.194)
  br label %41

34:                                               ; preds = %4
  %35 = load ptr, ptr %8, align 8
  %36 = load i32, ptr @hf_netb_local_session_no, align 4
  %37 = load ptr, ptr %5, align 8
  %38 = load i32, ptr %7, align 4
  %39 = add i32 %38, 6
  %40 = call ptr @proto_tree_add_item(ptr noundef %35, i32 noundef %36, ptr noundef %37, i32 noundef %39, i32 noundef 1, i32 noundef -2147483648)
  br label %41

41:                                               ; preds = %34, %25, %16
  %42 = load ptr, ptr %5, align 8
  %43 = load i32, ptr %7, align 4
  %44 = load ptr, ptr %8, align 8
  call void @nb_call_name_type(ptr noundef %42, i32 noundef %43, ptr noundef %44)
  %45 = load ptr, ptr %5, align 8
  %46 = load i32, ptr %7, align 4
  %47 = load ptr, ptr %8, align 8
  call void @nb_xmit_corrl(ptr noundef %45, i32 noundef %46, ptr noundef %47)
  %48 = load i8, ptr %9, align 1
  %49 = zext i8 %48 to i32
  %50 = icmp ne i32 %49, 0
  br i1 %50, label %51, label %59

51:                                               ; preds = %41
  %52 = load i8, ptr %9, align 1
  %53 = zext i8 %52 to i32
  %54 = icmp ne i32 %53, 255
  br i1 %54, label %55, label %59

55:                                               ; preds = %51
  %56 = load ptr, ptr %5, align 8
  %57 = load i32, ptr %7, align 4
  %58 = load ptr, ptr %8, align 8
  call void @nb_resp_corrl(ptr noundef %56, i32 noundef %57, ptr noundef %58)
  br label %59

59:                                               ; preds = %55, %51, %41
  %60 = load ptr, ptr %5, align 8
  %61 = load i32, ptr %7, align 4
  %62 = add i32 %61, 12
  %63 = load ptr, ptr %8, align 8
  call void @netbios_add_name(ptr noundef @.str.189, ptr noundef %60, i32 noundef %62, ptr noundef %63)
  %64 = load i8, ptr %9, align 1
  %65 = zext i8 %64 to i32
  %66 = icmp ne i32 %65, 0
  br i1 %66, label %67, label %76

67:                                               ; preds = %59
  %68 = load i8, ptr %9, align 1
  %69 = zext i8 %68 to i32
  %70 = icmp ne i32 %69, 255
  br i1 %70, label %71, label %76

71:                                               ; preds = %67
  %72 = load ptr, ptr %5, align 8
  %73 = load i32, ptr %7, align 4
  %74 = add i32 %73, 28
  %75 = load ptr, ptr %8, align 8
  call void @netbios_add_name(ptr noundef @.str.185, ptr noundef %72, i32 noundef %74, ptr noundef %75)
  br label %76

76:                                               ; preds = %71, %67, %59
  ret i32 0
}