; Function Attrs: nounwind uwtable
define internal noundef i32 @dissect_netb_name_resp(ptr noundef %0, ptr readnone captures(none) %1, i32 noundef %2, ptr noundef %3) #1 {
  %5 = add i32 %2, 6
  %6 = tail call zeroext i8 @tvb_get_guint8(ptr noundef %0, i32 noundef %5) #6
  switch i8 %6, label %13 [
    i8 0, label %7
    i8 -1, label %10
  ]

7:                                                ; preds = %4
  %8 = load i32, ptr @hf_netb_state_of_name, align 4
  %9 = tail call ptr (ptr, i32, ptr, i32, i32, i32, ptr, ...) @proto_tree_add_uint_format_value(ptr noundef %3, i32 noundef %8, ptr noundef %0, i32 noundef %5, i32 noundef 1, i32 noundef 0, ptr noundef nonnull @.str.193) #6
  br label %16

10:                                               ; preds = %4
  %11 = load i32, ptr @hf_netb_state_of_name, align 4
  %12 = tail call ptr (ptr, i32, ptr, i32, i32, i32, ptr, ...) @proto_tree_add_uint_format_value(ptr noundef %3, i32 noundef %11, ptr noundef %0, i32 noundef %5, i32 noundef 1, i32 noundef 255, ptr noundef nonnull @.str.194) #6
  br label %16

13:                                               ; preds = %4
  %14 = load i32, ptr @hf_netb_local_session_no, align 4
  %15 = tail call ptr @proto_tree_add_item(ptr noundef %3, i32 noundef %14, ptr noundef %0, i32 noundef %5, i32 noundef 1, i32 noundef -2147483648) #6
  br label %16

16:                                               ; preds = %13, %10, %7
  %17 = load i32, ptr @hf_netb_call_name_type, align 4
  %18 = add i32 %2, 7
  %19 = tail call ptr @proto_tree_add_item(ptr noundef %3, i32 noundef %17, ptr noundef %0, i32 noundef %18, i32 noundef 1, i32 noundef -2147483648) #6
  %20 = load i32, ptr @hf_netb_xmit_corrl, align 4
  %21 = add i32 %2, 8
  %22 = tail call ptr @proto_tree_add_item(ptr noundef %3, i32 noundef %20, ptr noundef %0, i32 noundef %21, i32 noundef 2, i32 noundef -2147483648) #6
  %23 = add i8 %6, -1
  %or.cond = icmp ult i8 %23, -2
  br i1 %or.cond, label %24, label %.critedge

24:                                               ; preds = %16
  %25 = load i32, ptr @hf_netb_resp_corrl, align 4
  %26 = add i32 %2, 10
  %27 = tail call ptr @proto_tree_add_item(ptr noundef %3, i32 noundef %25, ptr noundef %0, i32 noundef %26, i32 noundef 2, i32 noundef -2147483648) #6
  %28 = add i32 %2, 12
  tail call void @netbios_add_name(ptr noundef nonnull @.str.189, ptr noundef %0, i32 noundef %28, ptr noundef %3)
  br label %.critedge

.critedge:                                        ; preds = %16, %24
  %.sink37 = phi i32 [ 28, %24 ], [ 12, %16 ]
  %.str.189.sink = phi ptr [ @.str.185, %24 ], [ @.str.189, %16 ]
  %29 = add i32 %2, %.sink37
  tail call void @netbios_add_name(ptr noundef nonnull %.str.189.sink, ptr noundef %0, i32 noundef %29, ptr noundef %3)
  ret i32 0
}